target datalayout = "e-m:e-p270:32:32-p271:32:32-p272:64:64-i64:64-i128:128-f80:128-n8:16:32:64-S128"
target triple = "x86_64-pc-linux-gnu"

%struct.ge_p2 = type { [10 x i32], [10 x i32], [10 x i32] }
%struct.ge_p1p1 = type { [10 x i32], [10 x i32], [10 x i32], [10 x i32] }

; Function Attrs: nounwind uwtable
define hidden void @x25519_ge_p1p1_to_p2(ptr noundef %0, ptr noundef %1) #0 {
  %3 = alloca ptr, align 8
  %4 = alloca ptr, align 8
  store ptr %0, ptr %3, align 8, !tbaa !11
  store ptr %1, ptr %4, align 8, !tbaa !11
  %5 = load ptr, ptr %3, align 8, !tbaa !11
  %6 = getelementptr inbounds nuw %struct.ge_p2, ptr %5, i32 0, i32 0
  %7 = getelementptr inbounds [10 x i32], ptr %6, i64 0, i64 0
  %8 = load ptr, ptr %4, align 8, !tbaa !11
  %9 = getelementptr inbounds nuw %struct.ge_p1p1, ptr %8, i32 0, i32 0
  %10 = getelementptr inbounds [10 x i32], ptr %9, i64 0, i64 0
  %11 = load ptr, ptr %4, align 8, !tbaa !11
  %12 = getelementptr inbounds nuw %struct.ge_p1p1, ptr %11, i32 0, i32 3
  %13 = getelementptr inbounds [10 x i32], ptr %12, i64 0, i64 0
  call void @fe_mul(ptr noundef %7, ptr noundef %10, ptr noundef %13)
  %14 = load ptr, ptr %3, align 8, !tbaa !11
  %15 = getelementptr inbounds nuw %struct.ge_p2, ptr %14, i32 0, i32 1
  %16 = getelementptr inbounds [10 x i32], ptr %15, i64 0, i64 0
  %17 = load ptr, ptr %4, align 8, !tbaa !11
  %18 = getelementptr inbounds nuw %struct.ge_p1p1, ptr %17, i32 0, i32 1
  %19 = getelementptr inbounds [10 x i32], ptr %18, i64 0, i64 0
  %20 = load ptr, ptr %4, align 8, !tbaa !11
  %21 = getelementptr inbounds nuw %struct.ge_p1p1, ptr %20, i32 0, i32 2
  %22 = getelementptr inbounds [10 x i32], ptr %21, i64 0, i64 0
  call void @fe_mul(ptr noundef %16, ptr noundef %19, ptr noundef %22)
  %23 = load ptr, ptr %3, align 8, !tbaa !11
  %24 = getelementptr inbounds nuw %struct.ge_p2, ptr %23, i32 0, i32 2
  %25 = getelementptr inbounds [10 x i32], ptr %24, i64 0, i64 0
  %26 = load ptr, ptr %4, align 8, !tbaa !11
  %27 = getelementptr inbounds nuw %struct.ge_p1p1, ptr %26, i32 0, i32 2
  %28 = getelementptr inbounds [10 x i32], ptr %27, i64 0, i64 0
  %29 = load ptr, ptr %4, align 8, !tbaa !11
  %30 = getelementptr inbounds nuw %struct.ge_p1p1, ptr %29, i32 0, i32 3
  %31 = getelementptr inbounds [10 x i32], ptr %30, i64 0, i64 0
  call void @fe_mul(ptr noundef %25, ptr noundef %28, ptr noundef %31)
  ret void
}